Certificate:
    Data:
        Version: 3 (0x2)
        Serial Number: 2 (0x2)
    Signature Algorithm: sha1WithRSAEncryption
        Issuer: C=US, ST=CA, L=SanFrancisco, O=Fort-Funston, OU=changeme, CN=changeme/name=changeme/emailAddress=mail@host.domain
        Validity
            Not Before: Aug 14 05:34:13 2015 GMT
            Not After : Aug 11 05:34:13 2025 GMT
        Subject: C=US, ST=CA, L=SanFrancisco, O=Fort-Funston, OU=changeme, CN=1439530452/name=changeme/emailAddress=mail@host.domain
        Subject Public Key Info:
            Public Key Algorithm: rsaEncryption
                Public-Key: (1024 bit)
                Modulus:
                    00:b3:87:1a:82:13:6e:4d:6b:53:30:21:dd:58:78:
                    df:5e:2a:dd:7b:62:a2:d2:92:26:17:d3:d5:93:78:
                    ef:3f:37:7a:fc:73:43:b2:78:1b:30:8f:af:ea:38:
                    73:4a:33:46:e6:91:36:ea:fc:3f:64:f3:16:b7:75:
                    18:ab:ad:8b:04:b7:b7:a3:0c:ad:04:7c:38:b2:9e:
                    77:19:fb:c3:aa:2a:7f:9c:27:78:fd:52:be:77:bd:
                    0e:5c:42:40:32:39:ad:09:38:2a:38:75:bf:1e:af:
                    67:00:82:3e:79:65:c0:4f:3d:63:d3:5e:73:58:09:
                    10:70:57:2d:c1:eb:8a:47:49
                Exponent: 65537 (0x10001)
        X509v3 extensions:
            X509v3 Basic Constraints: 
                CA:FALSE
            Netscape Comment: 
                Easy-RSA Generated Certificate
            X509v3 Subject Key Identifier: 
                8A:58:2A:5A:29:B7:1D:E3:CD:F4:58:64:50:20:AE:F0:8D:BB:31:3D
            X509v3 Authority Key Identifier: 
                keyid:C5:1D:33:BC:9A:B5:83:AA:65:B3:85:A5:7B:D7:65:FA:27:3B:0A:86
                DirName:/C=US/ST=CA/L=SanFrancisco/O=Fort-Funston/OU=changeme/CN=changeme/name=changeme/emailAddress=mail@host.domain
                serial:8A:73:08:1C:DC:72:01:B5

            X509v3 Extended Key Usage: 
                TLS Web Client Authentication
            X509v3 Key Usage: 
                Digital Signature
    Signature Algorithm: sha1WithRSAEncryption
         9c:aa:aa:31:bb:31:a2:5c:16:d6:e7:81:a9:3a:1b:6a:73:67:
         50:3d:1c:3c:3e:c2:55:17:05:fc:49:5a:2a:18:4c:7c:12:f6:
         1f:a6:08:44:d6:2b:e3:79:7f:f6:65:5f:d9:6c:40:27:e8:94:
         39:fc:6c:65:93:53:ff:9d:f6:0e:e8:74:3a:21:09:62:1a:17:
         68:bb:7f:95:e4:cf:17:23:b7:ec:31:08:34:bb:3c:7a:ed:d5:
         e2:0b:60:c0:a8:d9:1f:17:6d:62:84:05:4c:73:63:b0:ef:df:
         4b:59:1c:85:9f:74:d9:c3:10:b2:4e:06:c5:18:a6:9e:af:96:
         59:da
-----BEGIN CERTIFICATE-----
MIIEGTCCA4KgAwIBAgIBAjANBgkqhkiG9w0BAQUFADCBojELMAkGA1UEBhMCVVMx
CzAJBgNVBAgTAkNBMRUwEwYDVQQHEwxTYW5GcmFuY2lzY28xFTATBgNVBAoTDEZv
cnQtRnVuc3RvbjERMA8GA1UECxMIY2hhbmdlbWUxETAPBgNVBAMTCGNoYW5nZW1l
MREwDwYDVQQpEwhjaGFuZ2VtZTEfMB0GCSqGSIb3DQEJARYQbWFpbEBob3N0LmRv
bWFpbjAeFw0xNTA4MTQwNTM0MTNaFw0yNTA4MTEwNTM0MTNaMIGkMQswCQYDVQQG
EwJVUzELMAkGA1UECBMCQ0ExFTATBgNVBAcTDFNhbkZyYW5jaXNjbzEVMBMGA1UE
ChMMRm9ydC1GdW5zdG9uMREwDwYDVQQLEwhjaGFuZ2VtZTETMBEGA1UEAxMKMTQz
OTUzMDQ1MjERMA8GA1UEKRMIY2hhbmdlbWUxHzAdBgkqhkiG9w0BCQEWEG1haWxA
aG9zdC5kb21haW4wgZ8wDQYJKoZIhvcNAQEBBQADgY0AMIGJAoGBALOHGoITbk1r
UzAh3Vh4314q3XtiotKSJhfT1ZN47z83evxzQ7J4GzCPr+o4c0ozRuaRNur8P2Tz
Frd1GKutiwS3t6MMrQR8OLKedxn7w6oqf5wneP1Svne9DlxCQDI5rQk4Kjh1vx6v
ZwCCPnllwE89Y9Nec1gJEHBXLcHrikdJAgMBAAGjggFZMIIBVTAJBgNVHRMEAjAA
MC0GCWCGSAGG+EIBDQQgFh5FYXN5LVJTQSBHZW5lcmF0ZWQgQ2VydGlmaWNhdGUw
HQYDVR0OBBYEFIpYKloptx3jzfRYZFAgrvCNuzE9MIHXBgNVHSMEgc8wgcyAFMUd
M7yatYOqZbOFpXvXZfonOwqGoYGopIGlMIGiMQswCQYDVQQGEwJVUzELMAkGA1UE
CBMCQ0ExFTATBgNVBAcTDFNhbkZyYW5jaXNjbzEVMBMGA1UEChMMRm9ydC1GdW5z
dG9uMREwDwYDVQQLEwhjaGFuZ2VtZTERMA8GA1UEAxMIY2hhbmdlbWUxETAPBgNV
BCkTCGNoYW5nZW1lMR8wHQYJKoZIhvcNAQkBFhBtYWlsQGhvc3QuZG9tYWluggkA
inMIHNxyAbUwEwYDVR0lBAwwCgYIKwYBBQUHAwIwCwYDVR0PBAQDAgeAMA0GCSqG
SIb3DQEBBQUAA4GBAJyqqjG7MaJcFtbngak6G2pzZ1A9HDw+wlUXBfxJWioYTHwS
9h+mCETWK+N5f/ZlX9lsQCfolDn8bGWTU/+d9g7odDohCWIaF2i7f5Xkzxcjt+wx
CDS7PHrt1eILYMCo2R8XbWKEBUxzY7Dv30tZHIWfdNnDELJOBsUYpp6vllna
-----END CERTIFICATE-----
